In archive libArduinoWeatherSensor.a:

WeatherSensorDHT11.o:     file format elf32-avr

Sections:
Idx Name          Size      VMA       LMA       File off  Algn
  0 .text         000002cc  00000000  00000000  00000034  2**0
                  CONTENTS, ALLOC, LOAD, RELOC, READONLY, CODE
  1 .data         00000010  00000000  00000000  00000300  2**0
                  CONTENTS, ALLOC, LOAD, RELOC, DATA
  2 .bss          00000000  00000000  00000000  00000310  2**0
                  ALLOC
Disassembly of section .text:

00000000 <_ZN18WeatherSensorDHT119makeFloatEPh>:
   0:	cf 92       	push	r12
   2:	df 92       	push	r13
   4:	ef 92       	push	r14
   6:	ff 92       	push	r15
   8:	0f 93       	push	r16
   a:	1f 93       	push	r17
   c:	6b 01       	movw	r12, r22
   e:	fb 01       	movw	r30, r22
  10:	60 81       	ld	r22, Z
  12:	70 e0       	ldi	r23, 0x00	; 0
  14:	88 27       	eor	r24, r24
  16:	77 fd       	sbrc	r23, 7
  18:	80 95       	com	r24
  1a:	98 2f       	mov	r25, r24
  1c:	0e 94 00 00 	call	0	; 0x0 <_ZN18WeatherSensorDHT119makeFloatEPh>
  20:	20 e0       	ldi	r18, 0x00	; 0
  22:	30 e0       	ldi	r19, 0x00	; 0
  24:	40 e0       	ldi	r20, 0x00	; 0
  26:	50 e0       	ldi	r21, 0x00	; 0
  28:	0e 94 00 00 	call	0	; 0x0 <_ZN18WeatherSensorDHT119makeFloatEPh>
  2c:	7b 01       	movw	r14, r22
  2e:	8c 01       	movw	r16, r24
  30:	f6 01       	movw	r30, r12
  32:	61 81       	ldd	r22, Z+1	; 0x01
  34:	70 e0       	ldi	r23, 0x00	; 0
  36:	88 27       	eor	r24, r24
  38:	77 fd       	sbrc	r23, 7
  3a:	80 95       	com	r24
  3c:	98 2f       	mov	r25, r24
  3e:	0e 94 00 00 	call	0	; 0x0 <_ZN18WeatherSensorDHT119makeFloatEPh>
  42:	20 e0       	ldi	r18, 0x00	; 0
  44:	30 e0       	ldi	r19, 0x00	; 0
  46:	40 e8       	ldi	r20, 0x80	; 128
  48:	5b e3       	ldi	r21, 0x3B	; 59
  4a:	0e 94 00 00 	call	0	; 0x0 <_ZN18WeatherSensorDHT119makeFloatEPh>
  4e:	9b 01       	movw	r18, r22
  50:	ac 01       	movw	r20, r24
  52:	c8 01       	movw	r24, r16
  54:	b7 01       	movw	r22, r14
  56:	0e 94 00 00 	call	0	; 0x0 <_ZN18WeatherSensorDHT119makeFloatEPh>
  5a:	1f 91       	pop	r17
  5c:	0f 91       	pop	r16
  5e:	ff 90       	pop	r15
  60:	ef 90       	pop	r14
  62:	df 90       	pop	r13
  64:	cf 90       	pop	r12
  66:	08 95       	ret

00000068 <_ZN18WeatherSensorDHT114readEv>:
  68:	ff 92       	push	r15
  6a:	0f 93       	push	r16
  6c:	1f 93       	push	r17
  6e:	cf 93       	push	r28
  70:	df 93       	push	r29
  72:	8c 01       	movw	r16, r24
  74:	ff 24       	eor	r15, r15
  76:	c7 e0       	ldi	r28, 0x07	; 7
  78:	d0 e0       	ldi	r29, 0x00	; 0
  7a:	f8 01       	movw	r30, r16
  7c:	87 81       	ldd	r24, Z+7	; 0x07
  7e:	0e 94 00 00 	call	0	; 0x0 <_ZN18WeatherSensorDHT119makeFloatEPh>
  82:	89 2b       	or	r24, r25
  84:	01 f0       	breq	.+0      	; 0x86 <_ZN18WeatherSensorDHT114readEv+0x1e>
  86:	8e e1       	ldi	r24, 0x1E	; 30
  88:	90 e0       	ldi	r25, 0x00	; 0
  8a:	0e 94 00 00 	call	0	; 0x0 <_ZN18WeatherSensorDHT119makeFloatEPh>
  8e:	f8 01       	movw	r30, r16
  90:	87 81       	ldd	r24, Z+7	; 0x07
  92:	0e 94 00 00 	call	0	; 0x0 <_ZN18WeatherSensorDHT119makeFloatEPh>
  96:	81 30       	cpi	r24, 0x01	; 1
  98:	91 05       	cpc	r25, r1
  9a:	01 f4       	brne	.+0      	; 0x9c <_ZN18WeatherSensorDHT114readEv+0x34>
  9c:	0c 2e       	mov	r0, r28
  9e:	00 c0       	rjmp	.+0      	; 0xa0 <_ZN18WeatherSensorDHT114readEv+0x38>
  a0:	88 0f       	add	r24, r24
  a2:	99 1f       	adc	r25, r25
  a4:	0a 94       	dec	r0
  a6:	02 f4       	brpl	.+0      	; 0xa8 <_ZN18WeatherSensorDHT114readEv+0x40>
  a8:	f8 2a       	or	r15, r24
  aa:	f8 01       	movw	r30, r16
  ac:	87 81       	ldd	r24, Z+7	; 0x07
  ae:	0e 94 00 00 	call	0	; 0x0 <_ZN18WeatherSensorDHT119makeFloatEPh>
  b2:	01 97       	sbiw	r24, 0x01	; 1
  b4:	01 f0       	breq	.+0      	; 0xb6 <_ZN18WeatherSensorDHT114readEv+0x4e>
  b6:	21 97       	sbiw	r28, 0x01	; 1
  b8:	ff ef       	ldi	r31, 0xFF	; 255
  ba:	cf 3f       	cpi	r28, 0xFF	; 255
  bc:	df 07       	cpc	r29, r31
  be:	01 f4       	brne	.+0      	; 0xc0 <_ZN18WeatherSensorDHT114readEv+0x58>
  c0:	8f 2d       	mov	r24, r15
  c2:	df 91       	pop	r29
  c4:	cf 91       	pop	r28
  c6:	1f 91       	pop	r17
  c8:	0f 91       	pop	r16
  ca:	ff 90       	pop	r15
  cc:	08 95       	ret

000000ce <_ZN18WeatherSensorDHT1111isAvailableEv>:
  ce:	ef 92       	push	r14
  d0:	ff 92       	push	r15
  d2:	0f 93       	push	r16
  d4:	1f 93       	push	r17
  d6:	dc 01       	movw	r26, r24
  d8:	18 96       	adiw	r26, 0x08	; 8
  da:	ed 90       	ld	r14, X+
  dc:	fd 90       	ld	r15, X+
  de:	0d 91       	ld	r16, X+
  e0:	1c 91       	ld	r17, X
  e2:	1b 97       	sbiw	r26, 0x0b	; 11
  e4:	80 e2       	ldi	r24, 0x20	; 32
  e6:	93 e0       	ldi	r25, 0x03	; 3
  e8:	a0 e0       	ldi	r26, 0x00	; 0
  ea:	b0 e0       	ldi	r27, 0x00	; 0
  ec:	e8 0e       	add	r14, r24
  ee:	f9 1e       	adc	r15, r25
  f0:	0a 1f       	adc	r16, r26
  f2:	1b 1f       	adc	r17, r27
  f4:	0e 94 00 00 	call	0	; 0x0 <_ZN18WeatherSensorDHT119makeFloatEPh>
  f8:	20 e0       	ldi	r18, 0x00	; 0
  fa:	6e 15       	cp	r22, r14
  fc:	7f 05       	cpc	r23, r15
  fe:	80 07       	cpc	r24, r16
 100:	91 07       	cpc	r25, r17
 102:	00 f0       	brcs	.+0      	; 0x104 <_ZN18WeatherSensorDHT1111isAvailableEv+0x36>
 104:	21 e0       	ldi	r18, 0x01	; 1
 106:	82 2f       	mov	r24, r18
 108:	1f 91       	pop	r17
 10a:	0f 91       	pop	r16
 10c:	ff 90       	pop	r15
 10e:	ef 90       	pop	r14
 110:	08 95       	ret

00000112 <_ZN18WeatherSensorDHT118readDataEPh>:
 112:	ef 92       	push	r14
 114:	ff 92       	push	r15
 116:	0f 93       	push	r16
 118:	1f 93       	push	r17
 11a:	cf 93       	push	r28
 11c:	df 93       	push	r29
 11e:	8c 01       	movw	r16, r24
 120:	7b 01       	movw	r14, r22
 122:	c8 01       	movw	r24, r16
 124:	0e 94 00 00 	call	0	; 0x0 <_ZN18WeatherSensorDHT119makeFloatEPh>
 128:	88 23       	and	r24, r24
 12a:	01 f0       	breq	.+0      	; 0x12c <_ZN18WeatherSensorDHT118readDataEPh+0x1a>
 12c:	0e 94 00 00 	call	0	; 0x0 <_ZN18WeatherSensorDHT119makeFloatEPh>
 130:	f8 01       	movw	r30, r16
 132:	60 87       	std	Z+8, r22	; 0x08
 134:	71 87       	std	Z+9, r23	; 0x09
 136:	82 87       	std	Z+10, r24	; 0x0a
 138:	93 87       	std	Z+11, r25	; 0x0b
 13a:	87 81       	ldd	r24, Z+7	; 0x07
 13c:	60 e0       	ldi	r22, 0x00	; 0
 13e:	0e 94 00 00 	call	0	; 0x0 <_ZN18WeatherSensorDHT119makeFloatEPh>
 142:	67 e1       	ldi	r22, 0x17	; 23
 144:	70 e0       	ldi	r23, 0x00	; 0
 146:	80 e0       	ldi	r24, 0x00	; 0
 148:	90 e0       	ldi	r25, 0x00	; 0
 14a:	0e 94 00 00 	call	0	; 0x0 <_ZN18WeatherSensorDHT119makeFloatEPh>
 14e:	f8 01       	movw	r30, r16
 150:	87 81       	ldd	r24, Z+7	; 0x07
 152:	61 e0       	ldi	r22, 0x01	; 1
 154:	0e 94 00 00 	call	0	; 0x0 <_ZN18WeatherSensorDHT119makeFloatEPh>
 158:	88 e2       	ldi	r24, 0x28	; 40
 15a:	90 e0       	ldi	r25, 0x00	; 0
 15c:	0e 94 00 00 	call	0	; 0x0 <_ZN18WeatherSensorDHT119makeFloatEPh>
 160:	f8 01       	movw	r30, r16
 162:	87 81       	ldd	r24, Z+7	; 0x07
 164:	60 e0       	ldi	r22, 0x00	; 0
 166:	0e 94 00 00 	call	0	; 0x0 <_ZN18WeatherSensorDHT119makeFloatEPh>
 16a:	88 e2       	ldi	r24, 0x28	; 40
 16c:	90 e0       	ldi	r25, 0x00	; 0
 16e:	0e 94 00 00 	call	0	; 0x0 <_ZN18WeatherSensorDHT119makeFloatEPh>
 172:	f8 01       	movw	r30, r16
 174:	87 81       	ldd	r24, Z+7	; 0x07
 176:	0e 94 00 00 	call	0	; 0x0 <_ZN18WeatherSensorDHT119makeFloatEPh>
 17a:	88 23       	and	r24, r24
 17c:	01 f0       	breq	.+0      	; 0x17e <_ZN18WeatherSensorDHT118readDataEPh+0x6c>
 17e:	22 e0       	ldi	r18, 0x02	; 2
 180:	00 c0       	rjmp	.+0      	; 0x182 <_ZN18WeatherSensorDHT118readDataEPh+0x70>
 182:	80 e5       	ldi	r24, 0x50	; 80
 184:	90 e0       	ldi	r25, 0x00	; 0
 186:	0e 94 00 00 	call	0	; 0x0 <_ZN18WeatherSensorDHT119makeFloatEPh>
 18a:	f8 01       	movw	r30, r16
 18c:	87 81       	ldd	r24, Z+7	; 0x07
 18e:	0e 94 00 00 	call	0	; 0x0 <_ZN18WeatherSensorDHT119makeFloatEPh>
 192:	88 23       	and	r24, r24
 194:	01 f4       	brne	.+0      	; 0x196 <_ZN18WeatherSensorDHT118readDataEPh+0x84>
 196:	24 e0       	ldi	r18, 0x04	; 4
 198:	00 c0       	rjmp	.+0      	; 0x19a <_ZN18WeatherSensorDHT118readDataEPh+0x88>
 19a:	80 e5       	ldi	r24, 0x50	; 80
 19c:	90 e0       	ldi	r25, 0x00	; 0
 19e:	0e 94 00 00 	call	0	; 0x0 <_ZN18WeatherSensorDHT119makeFloatEPh>
 1a2:	c0 e0       	ldi	r28, 0x00	; 0
 1a4:	d0 e0       	ldi	r29, 0x00	; 0
 1a6:	c8 01       	movw	r24, r16
 1a8:	0e 94 00 00 	call	0	; 0x0 <_ZN18WeatherSensorDHT119makeFloatEPh>
 1ac:	f7 01       	movw	r30, r14
 1ae:	ec 0f       	add	r30, r28
 1b0:	fd 1f       	adc	r31, r29
 1b2:	80 83       	st	Z, r24
 1b4:	21 96       	adiw	r28, 0x01	; 1
 1b6:	c5 30       	cpi	r28, 0x05	; 5
 1b8:	d1 05       	cpc	r29, r1
 1ba:	01 f4       	brne	.+0      	; 0x1bc <_ZN18WeatherSensorDHT118readDataEPh+0xaa>
 1bc:	f8 01       	movw	r30, r16
 1be:	87 81       	ldd	r24, Z+7	; 0x07
 1c0:	61 e0       	ldi	r22, 0x01	; 1
 1c2:	0e 94 00 00 	call	0	; 0x0 <_ZN18WeatherSensorDHT119makeFloatEPh>
 1c6:	f8 01       	movw	r30, r16
 1c8:	87 81       	ldd	r24, Z+7	; 0x07
 1ca:	61 e0       	ldi	r22, 0x01	; 1
 1cc:	0e 94 00 00 	call	0	; 0x0 <_ZN18WeatherSensorDHT119makeFloatEPh>
 1d0:	20 e0       	ldi	r18, 0x00	; 0
 1d2:	f7 01       	movw	r30, r14
 1d4:	81 81       	ldd	r24, Z+1	; 0x01
 1d6:	92 81       	ldd	r25, Z+2	; 0x02
 1d8:	89 0f       	add	r24, r25
 1da:	90 81       	ld	r25, Z
 1dc:	89 0f       	add	r24, r25
 1de:	93 81       	ldd	r25, Z+3	; 0x03
 1e0:	89 0f       	add	r24, r25
 1e2:	94 81       	ldd	r25, Z+4	; 0x04
 1e4:	98 13       	cpse	r25, r24
 1e6:	21 e0       	ldi	r18, 0x01	; 1
 1e8:	82 2f       	mov	r24, r18
 1ea:	df 91       	pop	r29
 1ec:	cf 91       	pop	r28
 1ee:	1f 91       	pop	r17
 1f0:	0f 91       	pop	r16
 1f2:	ff 90       	pop	r15
 1f4:	ef 90       	pop	r14
 1f6:	08 95       	ret

000001f8 <_ZN18WeatherSensorDHT1114getTemperatureEv>:
 1f8:	cf 93       	push	r28
 1fa:	df 93       	push	r29
 1fc:	ec 01       	movw	r28, r24
 1fe:	0e 94 00 00 	call	0	; 0x0 <_ZN18WeatherSensorDHT119makeFloatEPh>
 202:	88 23       	and	r24, r24
 204:	01 f0       	breq	.+0      	; 0x206 <_ZN18WeatherSensorDHT1114getTemperatureEv+0xe>
 206:	be 01       	movw	r22, r28
 208:	6e 5f       	subi	r22, 0xFE	; 254
 20a:	7f 4f       	sbci	r23, 0xFF	; 255
 20c:	ce 01       	movw	r24, r28
 20e:	0e 94 00 00 	call	0	; 0x0 <_ZN18WeatherSensorDHT119makeFloatEPh>
 212:	8c 87       	std	Y+12, r24	; 0x0c
 214:	8c 81       	ldd	r24, Y+4	; 0x04
 216:	df 91       	pop	r29
 218:	cf 91       	pop	r28
 21a:	08 95       	ret

0000021c <_ZN18WeatherSensorDHT1111getHumidityEv>:
 21c:	cf 93       	push	r28
 21e:	df 93       	push	r29
 220:	ec 01       	movw	r28, r24
 222:	0e 94 00 00 	call	0	; 0x0 <_ZN18WeatherSensorDHT119makeFloatEPh>
 226:	88 23       	and	r24, r24
 228:	01 f0       	breq	.+0      	; 0x22a <_ZN18WeatherSensorDHT1111getHumidityEv+0xe>
 22a:	be 01       	movw	r22, r28
 22c:	6e 5f       	subi	r22, 0xFE	; 254
 22e:	7f 4f       	sbci	r23, 0xFF	; 255
 230:	ce 01       	movw	r24, r28
 232:	0e 94 00 00 	call	0	; 0x0 <_ZN18WeatherSensorDHT119makeFloatEPh>
 236:	8c 87       	std	Y+12, r24	; 0x0c
 238:	8a 81       	ldd	r24, Y+2	; 0x02
 23a:	df 91       	pop	r29
 23c:	cf 91       	pop	r28
 23e:	08 95       	ret

00000240 <_ZN18WeatherSensorDHT11C1Eh>:
 240:	ff 92       	push	r15
 242:	0f 93       	push	r16
 244:	1f 93       	push	r17
 246:	8c 01       	movw	r16, r24
 248:	f6 2e       	mov	r15, r22
 24a:	80 e0       	ldi	r24, 0x00	; 0
 24c:	90 e0       	ldi	r25, 0x00	; 0
 24e:	f8 01       	movw	r30, r16
 250:	91 83       	std	Z+1, r25	; 0x01
 252:	80 83       	st	Z, r24
 254:	67 83       	std	Z+7, r22	; 0x07
 256:	0e 94 00 00 	call	0	; 0x0 <_ZN18WeatherSensorDHT119makeFloatEPh>
 25a:	60 52       	subi	r22, 0x20	; 32
 25c:	73 40       	sbci	r23, 0x03	; 3
 25e:	80 40       	sbci	r24, 0x00	; 0
 260:	90 40       	sbci	r25, 0x00	; 0
 262:	f8 01       	movw	r30, r16
 264:	60 87       	std	Z+8, r22	; 0x08
 266:	71 87       	std	Z+9, r23	; 0x09
 268:	82 87       	std	Z+10, r24	; 0x0a
 26a:	93 87       	std	Z+11, r25	; 0x0b
 26c:	14 86       	std	Z+12, r1	; 0x0c
 26e:	8f 2d       	mov	r24, r15
 270:	61 e0       	ldi	r22, 0x01	; 1
 272:	0e 94 00 00 	call	0	; 0x0 <_ZN18WeatherSensorDHT119makeFloatEPh>
 276:	8f 2d       	mov	r24, r15
 278:	61 e0       	ldi	r22, 0x01	; 1
 27a:	0e 94 00 00 	call	0	; 0x0 <_ZN18WeatherSensorDHT119makeFloatEPh>
 27e:	1f 91       	pop	r17
 280:	0f 91       	pop	r16
 282:	ff 90       	pop	r15
 284:	08 95       	ret

00000286 <_ZN18WeatherSensorDHT11C2Eh>:
 286:	ff 92       	push	r15
 288:	0f 93       	push	r16
 28a:	1f 93       	push	r17
 28c:	8c 01       	movw	r16, r24
 28e:	f6 2e       	mov	r15, r22
 290:	80 e0       	ldi	r24, 0x00	; 0
 292:	90 e0       	ldi	r25, 0x00	; 0
 294:	f8 01       	movw	r30, r16
 296:	91 83       	std	Z+1, r25	; 0x01
 298:	80 83       	st	Z, r24
 29a:	67 83       	std	Z+7, r22	; 0x07
 29c:	0e 94 00 00 	call	0	; 0x0 <_ZN18WeatherSensorDHT119makeFloatEPh>
 2a0:	60 52       	subi	r22, 0x20	; 32
 2a2:	73 40       	sbci	r23, 0x03	; 3
 2a4:	80 40       	sbci	r24, 0x00	; 0
 2a6:	90 40       	sbci	r25, 0x00	; 0
 2a8:	f8 01       	movw	r30, r16
 2aa:	60 87       	std	Z+8, r22	; 0x08
 2ac:	71 87       	std	Z+9, r23	; 0x09
 2ae:	82 87       	std	Z+10, r24	; 0x0a
 2b0:	93 87       	std	Z+11, r25	; 0x0b
 2b2:	14 86       	std	Z+12, r1	; 0x0c
 2b4:	8f 2d       	mov	r24, r15
 2b6:	61 e0       	ldi	r22, 0x01	; 1
 2b8:	0e 94 00 00 	call	0	; 0x0 <_ZN18WeatherSensorDHT119makeFloatEPh>
 2bc:	8f 2d       	mov	r24, r15
 2be:	61 e0       	ldi	r22, 0x01	; 1
 2c0:	0e 94 00 00 	call	0	; 0x0 <_ZN18WeatherSensorDHT119makeFloatEPh>
 2c4:	1f 91       	pop	r17
 2c6:	0f 91       	pop	r16
 2c8:	ff 90       	pop	r15
 2ca:	08 95       	ret

WeatherSensor.o:     file format elf32-avr

Sections:
Idx Name          Size      VMA       LMA       File off  Algn
  0 .text         00000000  00000000  00000000  00000034  2**0
                  CONTENTS, ALLOC, LOAD, READONLY, CODE
  1 .data         00000000  00000000  00000000  00000034  2**0
                  CONTENTS, ALLOC, LOAD, DATA
  2 .bss          00000000  00000000  00000000  00000034  2**0
                  ALLOC
