In archive libArduinoWeatherSensor.a:

WeatherSensorDHT11.o:     file format elf32-avr

Sections:
Idx Name          Size      VMA       LMA       File off  Algn
  0 .group        00000008  00000000  00000000  00000034  2**2
                  CONTENTS, READONLY, EXCLUDE, GROUP, LINK_ONCE_DISCARD
  1 .group        00000008  00000000  00000000  0000003c  2**2
                  CONTENTS, READONLY, EXCLUDE, GROUP, LINK_ONCE_DISCARD
  2 .text         0000025a  00000000  00000000  00000044  2**0
                  CONTENTS, ALLOC, LOAD, RELOC, READONLY, CODE
  3 .data         00000000  00000000  00000000  0000029e  2**0
                  CONTENTS, ALLOC, LOAD, DATA
  4 .bss          00000000  00000000  00000000  0000029e  2**0
                  ALLOC
  5 .rodata._ZTV18WeatherSensorDHT11 00000008  00000000  00000000  0000029e  2**0
                  CONTENTS, ALLOC, LOAD, RELOC, READONLY, DATA
  6 .rodata._ZTV13WeatherSensor 00000008  00000000  00000000  000002a6  2**0
                  CONTENTS, ALLOC, LOAD, RELOC, READONLY, DATA
  7 .comment      00000012  00000000  00000000  000002ae  2**0
                  CONTENTS, READONLY

Disassembly of section .text:

00000000 <_ZN18WeatherSensorDHT11C1Eh>:
   0:	1f 93       	push	r17
   2:	cf 93       	push	r28
   4:	df 93       	push	r29
   6:	ec 01       	movw	r28, r24
   8:	16 2f       	mov	r17, r22
   a:	20 e0       	ldi	r18, 0x00	; 0
   c:	30 e0       	ldi	r19, 0x00	; 0
   e:	39 83       	std	Y+1, r19	; 0x01
  10:	28 83       	st	Y, r18
  12:	6f 83       	std	Y+7, r22	; 0x07
  14:	0e 94 00 00 	call	0	; 0x0 <_ZN18WeatherSensorDHT11C1Eh>
  18:	60 52       	subi	r22, 0x20	; 32
  1a:	73 40       	sbci	r23, 0x03	; 3
  1c:	81 09       	sbc	r24, r1
  1e:	91 09       	sbc	r25, r1
  20:	68 87       	std	Y+8, r22	; 0x08
  22:	79 87       	std	Y+9, r23	; 0x09
  24:	8a 87       	std	Y+10, r24	; 0x0a
  26:	9b 87       	std	Y+11, r25	; 0x0b
  28:	1c 86       	std	Y+12, r1	; 0x0c
  2a:	61 e0       	ldi	r22, 0x01	; 1
  2c:	81 2f       	mov	r24, r17
  2e:	0e 94 00 00 	call	0	; 0x0 <_ZN18WeatherSensorDHT11C1Eh>
  32:	61 e0       	ldi	r22, 0x01	; 1
  34:	81 2f       	mov	r24, r17
  36:	df 91       	pop	r29
  38:	cf 91       	pop	r28
  3a:	1f 91       	pop	r17
  3c:	0c 94 00 00 	jmp	0	; 0x0 <_ZN18WeatherSensorDHT11C1Eh>

00000040 <_ZN18WeatherSensorDHT119makeFloatEPh>:
  40:	ef 92       	push	r14
  42:	ff 92       	push	r15
  44:	0f 93       	push	r16
  46:	1f 93       	push	r17
  48:	cf 93       	push	r28
  4a:	df 93       	push	r29
  4c:	eb 01       	movw	r28, r22
  4e:	68 81       	ld	r22, Y
  50:	70 e0       	ldi	r23, 0x00	; 0
  52:	80 e0       	ldi	r24, 0x00	; 0
  54:	90 e0       	ldi	r25, 0x00	; 0
  56:	0e 94 00 00 	call	0	; 0x0 <_ZN18WeatherSensorDHT11C1Eh>
  5a:	20 e0       	ldi	r18, 0x00	; 0
  5c:	30 e0       	ldi	r19, 0x00	; 0
  5e:	a9 01       	movw	r20, r18
  60:	0e 94 00 00 	call	0	; 0x0 <_ZN18WeatherSensorDHT11C1Eh>
  64:	7b 01       	movw	r14, r22
  66:	8c 01       	movw	r16, r24
  68:	69 81       	ldd	r22, Y+1	; 0x01
  6a:	70 e0       	ldi	r23, 0x00	; 0
  6c:	80 e0       	ldi	r24, 0x00	; 0
  6e:	90 e0       	ldi	r25, 0x00	; 0
  70:	0e 94 00 00 	call	0	; 0x0 <_ZN18WeatherSensorDHT11C1Eh>
  74:	20 e0       	ldi	r18, 0x00	; 0
  76:	30 e0       	ldi	r19, 0x00	; 0
  78:	40 e8       	ldi	r20, 0x80	; 128
  7a:	5b e3       	ldi	r21, 0x3B	; 59
  7c:	0e 94 00 00 	call	0	; 0x0 <_ZN18WeatherSensorDHT11C1Eh>
  80:	9b 01       	movw	r18, r22
  82:	ac 01       	movw	r20, r24
  84:	6e 2d       	mov	r22, r14
  86:	7f 2d       	mov	r23, r15
  88:	80 2f       	mov	r24, r16
  8a:	91 2f       	mov	r25, r17
  8c:	0e 94 00 00 	call	0	; 0x0 <_ZN18WeatherSensorDHT11C1Eh>
  90:	df 91       	pop	r29
  92:	cf 91       	pop	r28
  94:	1f 91       	pop	r17
  96:	0f 91       	pop	r16
  98:	ff 90       	pop	r15
  9a:	ef 90       	pop	r14
  9c:	08 95       	ret

0000009e <_ZN18WeatherSensorDHT1111isAvailableEv>:
  9e:	cf 92       	push	r12
  a0:	df 92       	push	r13
  a2:	ef 92       	push	r14
  a4:	ff 92       	push	r15
  a6:	fc 01       	movw	r30, r24
  a8:	c0 84       	ldd	r12, Z+8	; 0x08
  aa:	d1 84       	ldd	r13, Z+9	; 0x09
  ac:	e2 84       	ldd	r14, Z+10	; 0x0a
  ae:	f3 84       	ldd	r15, Z+11	; 0x0b
  b0:	f0 e2       	ldi	r31, 0x20	; 32
  b2:	cf 0e       	add	r12, r31
  b4:	f3 e0       	ldi	r31, 0x03	; 3
  b6:	df 1e       	adc	r13, r31
  b8:	e1 1c       	adc	r14, r1
  ba:	f1 1c       	adc	r15, r1
  bc:	0e 94 00 00 	call	0	; 0x0 <_ZN18WeatherSensorDHT11C1Eh>
  c0:	21 e0       	ldi	r18, 0x01	; 1
  c2:	6c 15       	cp	r22, r12
  c4:	7d 05       	cpc	r23, r13
  c6:	8e 05       	cpc	r24, r14
  c8:	9f 05       	cpc	r25, r15
  ca:	00 f4       	brcc	.+0      	; 0xcc <_ZN18WeatherSensorDHT1111isAvailableEv+0x2e>
  cc:	20 e0       	ldi	r18, 0x00	; 0
  ce:	82 2f       	mov	r24, r18
  d0:	ff 90       	pop	r15
  d2:	ef 90       	pop	r14
  d4:	df 90       	pop	r13
  d6:	cf 90       	pop	r12
  d8:	08 95       	ret

000000da <_ZN18WeatherSensorDHT114readEv>:
  da:	ff 92       	push	r15
  dc:	0f 93       	push	r16
  de:	1f 93       	push	r17
  e0:	cf 93       	push	r28
  e2:	df 93       	push	r29
  e4:	8c 01       	movw	r16, r24
  e6:	c7 e0       	ldi	r28, 0x07	; 7
  e8:	d0 e0       	ldi	r29, 0x00	; 0
  ea:	f1 2c       	mov	r15, r1
  ec:	f8 01       	movw	r30, r16
  ee:	87 81       	ldd	r24, Z+7	; 0x07
  f0:	0e 94 00 00 	call	0	; 0x0 <_ZN18WeatherSensorDHT11C1Eh>
  f4:	89 2b       	or	r24, r25
  f6:	01 f0       	breq	.+0      	; 0xf8 <_ZN18WeatherSensorDHT114readEv+0x1e>
  f8:	8e e1       	ldi	r24, 0x1E	; 30
  fa:	90 e0       	ldi	r25, 0x00	; 0
  fc:	0e 94 00 00 	call	0	; 0x0 <_ZN18WeatherSensorDHT11C1Eh>
 100:	f8 01       	movw	r30, r16
 102:	87 81       	ldd	r24, Z+7	; 0x07
 104:	0e 94 00 00 	call	0	; 0x0 <_ZN18WeatherSensorDHT11C1Eh>
 108:	81 30       	cpi	r24, 0x01	; 1
 10a:	91 05       	cpc	r25, r1
 10c:	01 f4       	brne	.+0      	; 0x10e <_ZN18WeatherSensorDHT114readEv+0x34>
 10e:	9c 01       	movw	r18, r24
 110:	0c 2e       	mov	r0, r28
 112:	00 c0       	rjmp	.+0      	; 0x114 <_ZN18WeatherSensorDHT114readEv+0x3a>
 114:	22 0f       	add	r18, r18
 116:	0a 94       	dec	r0
 118:	02 f4       	brpl	.+0      	; 0x11a <_ZN18WeatherSensorDHT114readEv+0x40>
 11a:	f2 2a       	or	r15, r18
 11c:	f8 01       	movw	r30, r16
 11e:	87 81       	ldd	r24, Z+7	; 0x07
 120:	0e 94 00 00 	call	0	; 0x0 <_ZN18WeatherSensorDHT11C1Eh>
 124:	01 97       	sbiw	r24, 0x01	; 1
 126:	01 f0       	breq	.+0      	; 0x128 <_ZN18WeatherSensorDHT114readEv+0x4e>
 128:	21 97       	sbiw	r28, 0x01	; 1
 12a:	00 f4       	brcc	.+0      	; 0x12c <_ZN18WeatherSensorDHT114readEv+0x52>
 12c:	8f 2d       	mov	r24, r15
 12e:	df 91       	pop	r29
 130:	cf 91       	pop	r28
 132:	1f 91       	pop	r17
 134:	0f 91       	pop	r16
 136:	ff 90       	pop	r15
 138:	08 95       	ret

0000013a <_ZN18WeatherSensorDHT118readDataEPh>:
 13a:	df 92       	push	r13
 13c:	ef 92       	push	r14
 13e:	ff 92       	push	r15
 140:	0f 93       	push	r16
 142:	1f 93       	push	r17
 144:	cf 93       	push	r28
 146:	df 93       	push	r29
 148:	ec 01       	movw	r28, r24
 14a:	8b 01       	movw	r16, r22
 14c:	ce 01       	movw	r24, r28
 14e:	0e 94 00 00 	call	0	; 0x0 <_ZN18WeatherSensorDHT11C1Eh>
 152:	88 23       	and	r24, r24
 154:	01 f0       	breq	.+0      	; 0x156 <_ZN18WeatherSensorDHT118readDataEPh+0x1c>
 156:	0e 94 00 00 	call	0	; 0x0 <_ZN18WeatherSensorDHT11C1Eh>
 15a:	68 87       	std	Y+8, r22	; 0x08
 15c:	79 87       	std	Y+9, r23	; 0x09
 15e:	8a 87       	std	Y+10, r24	; 0x0a
 160:	9b 87       	std	Y+11, r25	; 0x0b
 162:	60 e0       	ldi	r22, 0x00	; 0
 164:	8f 81       	ldd	r24, Y+7	; 0x07
 166:	0e 94 00 00 	call	0	; 0x0 <_ZN18WeatherSensorDHT11C1Eh>
 16a:	67 e1       	ldi	r22, 0x17	; 23
 16c:	70 e0       	ldi	r23, 0x00	; 0
 16e:	80 e0       	ldi	r24, 0x00	; 0
 170:	90 e0       	ldi	r25, 0x00	; 0
 172:	0e 94 00 00 	call	0	; 0x0 <_ZN18WeatherSensorDHT11C1Eh>
 176:	61 e0       	ldi	r22, 0x01	; 1
 178:	8f 81       	ldd	r24, Y+7	; 0x07
 17a:	0e 94 00 00 	call	0	; 0x0 <_ZN18WeatherSensorDHT11C1Eh>
 17e:	88 e2       	ldi	r24, 0x28	; 40
 180:	90 e0       	ldi	r25, 0x00	; 0
 182:	0e 94 00 00 	call	0	; 0x0 <_ZN18WeatherSensorDHT11C1Eh>
 186:	60 e0       	ldi	r22, 0x00	; 0
 188:	8f 81       	ldd	r24, Y+7	; 0x07
 18a:	0e 94 00 00 	call	0	; 0x0 <_ZN18WeatherSensorDHT11C1Eh>
 18e:	88 e2       	ldi	r24, 0x28	; 40
 190:	90 e0       	ldi	r25, 0x00	; 0
 192:	0e 94 00 00 	call	0	; 0x0 <_ZN18WeatherSensorDHT11C1Eh>
 196:	8f 81       	ldd	r24, Y+7	; 0x07
 198:	0e 94 00 00 	call	0	; 0x0 <_ZN18WeatherSensorDHT11C1Eh>
 19c:	81 11       	cpse	r24, r1
 19e:	00 c0       	rjmp	.+0      	; 0x1a0 <_ZN18WeatherSensorDHT118readDataEPh+0x66>
 1a0:	80 e5       	ldi	r24, 0x50	; 80
 1a2:	90 e0       	ldi	r25, 0x00	; 0
 1a4:	0e 94 00 00 	call	0	; 0x0 <_ZN18WeatherSensorDHT11C1Eh>
 1a8:	8f 81       	ldd	r24, Y+7	; 0x07
 1aa:	0e 94 00 00 	call	0	; 0x0 <_ZN18WeatherSensorDHT11C1Eh>
 1ae:	88 23       	and	r24, r24
 1b0:	01 f0       	breq	.+0      	; 0x1b2 <_ZN18WeatherSensorDHT118readDataEPh+0x78>
 1b2:	80 e5       	ldi	r24, 0x50	; 80
 1b4:	90 e0       	ldi	r25, 0x00	; 0
 1b6:	0e 94 00 00 	call	0	; 0x0 <_ZN18WeatherSensorDHT11C1Eh>
 1ba:	78 01       	movw	r14, r16
 1bc:	85 e0       	ldi	r24, 0x05	; 5
 1be:	d8 2e       	mov	r13, r24
 1c0:	ce 01       	movw	r24, r28
 1c2:	0e 94 00 00 	call	0	; 0x0 <_ZN18WeatherSensorDHT11C1Eh>
 1c6:	f7 01       	movw	r30, r14
 1c8:	81 93       	st	Z+, r24
 1ca:	7f 01       	movw	r14, r30
 1cc:	da 94       	dec	r13
 1ce:	01 f4       	brne	.+0      	; 0x1d0 <_ZN18WeatherSensorDHT118readDataEPh+0x96>
 1d0:	61 e0       	ldi	r22, 0x01	; 1
 1d2:	8f 81       	ldd	r24, Y+7	; 0x07
 1d4:	0e 94 00 00 	call	0	; 0x0 <_ZN18WeatherSensorDHT11C1Eh>
 1d8:	61 e0       	ldi	r22, 0x01	; 1
 1da:	8f 81       	ldd	r24, Y+7	; 0x07
 1dc:	0e 94 00 00 	call	0	; 0x0 <_ZN18WeatherSensorDHT11C1Eh>
 1e0:	f8 01       	movw	r30, r16
 1e2:	91 81       	ldd	r25, Z+1	; 0x01
 1e4:	80 81       	ld	r24, Z
 1e6:	98 0f       	add	r25, r24
 1e8:	82 81       	ldd	r24, Z+2	; 0x02
 1ea:	98 0f       	add	r25, r24
 1ec:	83 81       	ldd	r24, Z+3	; 0x03
 1ee:	98 0f       	add	r25, r24
 1f0:	81 e0       	ldi	r24, 0x01	; 1
 1f2:	24 81       	ldd	r18, Z+4	; 0x04
 1f4:	29 13       	cpse	r18, r25
 1f6:	00 c0       	rjmp	.+0      	; 0x1f8 <_ZN18WeatherSensorDHT118readDataEPh+0xbe>
 1f8:	80 e0       	ldi	r24, 0x00	; 0
 1fa:	00 c0       	rjmp	.+0      	; 0x1fc <_ZN18WeatherSensorDHT118readDataEPh+0xc2>
 1fc:	84 e0       	ldi	r24, 0x04	; 4
 1fe:	00 c0       	rjmp	.+0      	; 0x200 <_ZN18WeatherSensorDHT118readDataEPh+0xc6>
 200:	82 e0       	ldi	r24, 0x02	; 2
 202:	df 91       	pop	r29
 204:	cf 91       	pop	r28
 206:	1f 91       	pop	r17
 208:	0f 91       	pop	r16
 20a:	ff 90       	pop	r15
 20c:	ef 90       	pop	r14
 20e:	df 90       	pop	r13
 210:	08 95       	ret

00000212 <_ZN18WeatherSensorDHT1114getTemperatureEv>:
 212:	cf 93       	push	r28
 214:	df 93       	push	r29
 216:	ec 01       	movw	r28, r24
 218:	0e 94 00 00 	call	0	; 0x0 <_ZN18WeatherSensorDHT11C1Eh>
 21c:	88 23       	and	r24, r24
 21e:	01 f0       	breq	.+0      	; 0x220 <_ZN18WeatherSensorDHT1114getTemperatureEv+0xe>
 220:	be 01       	movw	r22, r28
 222:	6e 5f       	subi	r22, 0xFE	; 254
 224:	7f 4f       	sbci	r23, 0xFF	; 255
 226:	ce 01       	movw	r24, r28
 228:	0e 94 00 00 	call	0	; 0x0 <_ZN18WeatherSensorDHT11C1Eh>
 22c:	8c 87       	std	Y+12, r24	; 0x0c
 22e:	8c 81       	ldd	r24, Y+4	; 0x04
 230:	df 91       	pop	r29
 232:	cf 91       	pop	r28
 234:	08 95       	ret

00000236 <_ZN18WeatherSensorDHT1111getHumidityEv>:
 236:	cf 93       	push	r28
 238:	df 93       	push	r29
 23a:	ec 01       	movw	r28, r24
 23c:	0e 94 00 00 	call	0	; 0x0 <_ZN18WeatherSensorDHT11C1Eh>
 240:	88 23       	and	r24, r24
 242:	01 f0       	breq	.+0      	; 0x244 <_ZN18WeatherSensorDHT1111getHumidityEv+0xe>
 244:	be 01       	movw	r22, r28
 246:	6e 5f       	subi	r22, 0xFE	; 254
 248:	7f 4f       	sbci	r23, 0xFF	; 255
 24a:	ce 01       	movw	r24, r28
 24c:	0e 94 00 00 	call	0	; 0x0 <_ZN18WeatherSensorDHT11C1Eh>
 250:	8c 87       	std	Y+12, r24	; 0x0c
 252:	8a 81       	ldd	r24, Y+2	; 0x02
 254:	df 91       	pop	r29
 256:	cf 91       	pop	r28
 258:	08 95       	ret

WeatherSensor.o:     file format elf32-avr

Sections:
Idx Name          Size      VMA       LMA       File off  Algn
  0 .text         00000000  00000000  00000000  00000034  2**0
                  CONTENTS, ALLOC, LOAD, READONLY, CODE
  1 .data         00000000  00000000  00000000  00000034  2**0
                  CONTENTS, ALLOC, LOAD, DATA
  2 .bss          00000000  00000000  00000000  00000034  2**0
                  ALLOC
  3 .comment      00000012  00000000  00000000  00000034  2**0
                  CONTENTS, READONLY
